target datalayout = "e-m:e-p270:32:32-p271:32:32-p272:64:64-i64:64-i128:128-f80:128-n8:16:32:64-S128"
target triple = "x86_64-pc-linux-gnu"

%struct.block_iq2_xxs = type { i16, [32 x i16] }

@kmask_iq2xs = internal constant [8 x i8] c"\01\02\04\08\10 @\80", align 1
@ggml_table_f32_f16 = external global [65536 x float], align 16

; Function Attrs: inlinehint nounwind uwtable
define internal float @ggml_lookup_fp16_to_fp32(i16 noundef zeroext %0) #3 {
  %2 = alloca i16, align 2
  %3 = alloca i16, align 2
  store i16 %0, ptr %2, align 2, !tbaa !42
  call void @llvm.lifetime.start.p0(i64 2, ptr %3) #10
  call void @llvm.memcpy.p0.p0.i64(ptr align 2 %3, ptr align 2 %2, i64 2, i1 false)
  %4 = load i16, ptr %3, align 2, !tbaa !42
  %5 = zext i16 %4 to i64
  %6 = getelementptr inbounds nuw [65536 x float], ptr @ggml_table_f32_f16, i64 0, i64 %5
  %7 = load float, ptr %6, align 4, !tbaa !13
  call void @llvm.lifetime.end.p0(i64 2, ptr %3) #10
  ret float %7
}

; Function Attrs: nounwind uwtable
define void @dequantize_row_iq2_xxs(ptr noalias noundef %0, ptr noalias noundef %1, i64 noundef %2) #0 {
  %4 = alloca ptr, align 8
  %5 = alloca ptr, align 8
  %6 = alloca i64, align 8
  %7 = alloca i64, align 8
  %8 = alloca [2 x i32], align 4
  %9 = alloca ptr, align 8
  %10 = alloca i32, align 4
  %11 = alloca i32, align 4
  %12 = alloca float, align 4
  %13 = alloca i32, align 4
  %14 = alloca float, align 4
  %15 = alloca i32, align 4
  %16 = alloca ptr, align 8
  %17 = alloca i8, align 1
  %18 = alloca i32, align 4
  store ptr %0, ptr %4, align 8, !tbaa !8
  store ptr %1, ptr %5, align 8, !tbaa !3
  store i64 %2, ptr %6, align 8, !tbaa !9
  call void @llvm.lifetime.start.p0(i64 8, ptr %7) #10
  %19 = load i64, ptr %6, align 8, !tbaa !9
  %20 = sdiv i64 %19, 256
  store i64 %20, ptr %7, align 8, !tbaa !9
  call void @llvm.lifetime.start.p0(i64 8, ptr %8) #10
  call void @llvm.lifetime.start.p0(i64 8, ptr %9) #10
  %21 = getelementptr inbounds [2 x i32], ptr %8, i64 0, i64 0
  store ptr %21, ptr %9, align 8, !tbaa !61
  call void @llvm.lifetime.start.p0(i64 4, ptr %10) #10
  store i32 0, ptr %10, align 4, !tbaa !11
  br label %22

22:                                               ; preds = %125, %3
  %23 = load i32, ptr %10, align 4, !tbaa !11
  %24 = sext i32 %23 to i64
  %25 = load i64, ptr %7, align 8, !tbaa !9
  %26 = icmp slt i64 %24, %25
  br i1 %26, label %28, label %27

27:                                               ; preds = %22
  store i32 2, ptr %11, align 4
  call void @llvm.lifetime.end.p0(i64 4, ptr %10) #10
  br label %128

28:                                               ; preds = %22
  call void @llvm.lifetime.start.p0(i64 4, ptr %12) #10
  %29 = load ptr, ptr %4, align 8, !tbaa !8
  %30 = load i32, ptr %10, align 4, !tbaa !11
  %31 = sext i32 %30 to i64
  %32 = getelementptr inbounds %struct.block_iq2_xxs, ptr %29, i64 %31
  %33 = getelementptr inbounds nuw %struct.block_iq2_xxs, ptr %32, i32 0, i32 0
  %34 = load i16, ptr %33, align 2, !tbaa !17
  %35 = call float @ggml_lookup_fp16_to_fp32(i16 noundef zeroext %34)
  store float %35, ptr %12, align 4, !tbaa !13
  call void @llvm.lifetime.start.p0(i64 4, ptr %13) #10
  store i32 0, ptr %13, align 4, !tbaa !11
  br label %36

36:                                               ; preds = %121, %28
  %37 = load i32, ptr %13, align 4, !tbaa !11
  %38 = icmp slt i32 %37, 8
  br i1 %38, label %40, label %39

39:                                               ; preds = %36
  store i32 5, ptr %11, align 4
  call void @llvm.lifetime.end.p0(i64 4, ptr %13) #10
  br label %124

40:                                               ; preds = %36
  %41 = getelementptr inbounds [2 x i32], ptr %8, i64 0, i64 0
  %42 = load ptr, ptr %4, align 8, !tbaa !8
  %43 = load i32, ptr %10, align 4, !tbaa !11
  %44 = sext i32 %43 to i64
  %45 = getelementptr inbounds %struct.block_iq2_xxs, ptr %42, i64 %44
  %46 = getelementptr inbounds nuw %struct.block_iq2_xxs, ptr %45, i32 0, i32 1
  %47 = getelementptr inbounds [32 x i16], ptr %46, i64 0, i64 0
  %48 = load i32, ptr %13, align 4, !tbaa !11
  %49 = mul nsw i32 4, %48
  %50 = sext i32 %49 to i64
  %51 = getelementptr inbounds i16, ptr %47, i64 %50
  call void @llvm.memcpy.p0.p0.i64(ptr align 4 %41, ptr align 2 %51, i64 8, i1 false)
  call void @llvm.lifetime.start.p0(i64 4, ptr %14) #10
  %52 = load float, ptr %12, align 4, !tbaa !13
  %53 = getelementptr inbounds [2 x i32], ptr %8, i64 0, i64 1
  %54 = load i32, ptr %53, align 4, !tbaa !11
  %55 = lshr i32 %54, 28
  %56 = uitofp i32 %55 to float
  %57 = fadd float 5.000000e-01, %56
  %58 = fmul float %52, %57
  %59 = fmul float %58, 2.500000e-01
  store float %59, ptr %14, align 4, !tbaa !13
  call void @llvm.lifetime.start.p0(i64 4, ptr %15) #10
  store i32 0, ptr %15, align 4, !tbaa !11
  br label %60

60:                                               ; preds = %117, %40
  %61 = load i32, ptr %15, align 4, !tbaa !11
  %62 = icmp slt i32 %61, 4
  br i1 %62, label %64, label %63

63:                                               ; preds = %60
  store i32 8, ptr %11, align 4
  call void @llvm.lifetime.end.p0(i64 4, ptr %15) #10
  br label %120

64:                                               ; preds = %60
  call void @llvm.lifetime.start.p0(i64 8, ptr %16) #10
  %65 = load ptr, ptr %9, align 8, !tbaa !61
  %66 = load i32, ptr %15, align 4, !tbaa !11
  %67 = sext i32 %66 to i64
  %68 = getelementptr inbounds i8, ptr %65, i64 %67
  %69 = load i8, ptr %68, align 1, !tbaa !20
  %70 = zext i8 %69 to i32
  %71 = sext i32 %70 to i64
  %72 = getelementptr inbounds i64, ptr @iq2xxs_grid, i64 %71
  store ptr %72, ptr %16, align 8, !tbaa !61
  call void @llvm.lifetime.start.p0(i64 1, ptr %17) #10
  %73 = getelementptr inbounds [2 x i32], ptr %8, i64 0, i64 1
  %74 = load i32, ptr %73, align 4, !tbaa !11
  %75 = load i32, ptr %15, align 4, !tbaa !11
  %76 = mul nsw i32 7, %75
  %77 = lshr i32 %74, %76
  %78 = and i32 %77, 127
  %79 = zext i32 %78 to i64
  %80 = getelementptr inbounds nuw [128 x i8], ptr @ksigns_iq2xs, i64 0, i64 %79
  %81 = load i8, ptr %80, align 1, !tbaa !20
  store i8 %81, ptr %17, align 1, !tbaa !20
  call void @llvm.lifetime.start.p0(i64 4, ptr %18) #10
  store i32 0, ptr %18, align 4, !tbaa !11
  br label %82

82:                                               ; preds = %111, %64
  %83 = load i32, ptr %18, align 4, !tbaa !11
  %84 = icmp slt i32 %83, 8
  br i1 %84, label %86, label %85

85:                                               ; preds = %82
  store i32 11, ptr %11, align 4
  call void @llvm.lifetime.end.p0(i64 4, ptr %18) #10
  br label %114

86:                                               ; preds = %82
  %87 = load float, ptr %14, align 4, !tbaa !13
  %88 = load ptr, ptr %16, align 8, !tbaa !61
  %89 = load i32, ptr %18, align 4, !tbaa !11
  %90 = sext i32 %89 to i64
  %91 = getelementptr inbounds i8, ptr %88, i64 %90
  %92 = load i8, ptr %91, align 1, !tbaa !20
  %93 = zext i8 %92 to i32
  %94 = sitofp i32 %93 to float
  %95 = fmul float %87, %94
  %96 = load i8, ptr %17, align 1, !tbaa !20
  %97 = zext i8 %96 to i32
  %98 = load i32, ptr %18, align 4, !tbaa !11
  %99 = sext i32 %98 to i64
  %100 = getelementptr inbounds [8 x i8], ptr @kmask_iq2xs, i64 0, i64 %99
  %101 = load i8, ptr %100, align 1, !tbaa !20
  %102 = zext i8 %101 to i32
  %103 = and i32 %97, %102
  %104 = icmp ne i32 %103, 0
  %105 = select i1 %104, float -1.000000e+00, float 1.000000e+00
  %106 = fmul float %95, %105
  %107 = load ptr, ptr %5, align 8, !tbaa !3
  %108 = load i32, ptr %18, align 4, !tbaa !11
  %109 = sext i32 %108 to i64
  %110 = getelementptr inbounds float, ptr %107, i64 %109
  store float %106, ptr %110, align 4, !tbaa !13
  br label %111

111:                                              ; preds = %86
  %112 = load i32, ptr %18, align 4, !tbaa !11
  %113 = add nsw i32 %112, 1
  store i32 %113, ptr %18, align 4, !tbaa !11
  br label %82, !llvm.loop !254

114:                                              ; preds = %85
  %115 = load ptr, ptr %5, align 8, !tbaa !3
  %116 = getelementptr inbounds float, ptr %115, i64 8
  store ptr %116, ptr %5, align 8, !tbaa !3
  call void @llvm.lifetime.end.p0(i64 1, ptr %17) #10
  call void @llvm.lifetime.end.p0(i64 8, ptr %16) #10
  br label %117

117:                                              ; preds = %114
  %118 = load i32, ptr %15, align 4, !tbaa !11
  %119 = add nsw i32 %118, 1
  store i32 %119, ptr %15, align 4, !tbaa !11
  br label %60, !llvm.loop !255

120:                                              ; preds = %63
  call void @llvm.lifetime.end.p0(i64 4, ptr %14) #10
  br label %121

121:                                              ; preds = %120
  %122 = load i32, ptr %13, align 4, !tbaa !11
  %123 = add nsw i32 %122, 1
  store i32 %123, ptr %13, align 4, !tbaa !11
  br label %36, !llvm.loop !256

124:                                              ; preds = %39
  call void @llvm.lifetime.end.p0(i64 4, ptr %12) #10
  br label %125

125:                                              ; preds = %124
  %126 = load i32, ptr %10, align 4, !tbaa !11
  %127 = add nsw i32 %126, 1
  store i32 %127, ptr %10, align 4, !tbaa !11
  br label %22, !llvm.loop !257

128:                                              ; preds = %27
  call void @llvm.lifetime.end.p0(i64 8, ptr %9) #10
  call void @llvm.lifetime.end.p0(i64 8, ptr %8) #10
  call void @llvm.lifetime.end.p0(i64 8, ptr %7) #10
  ret void
}