; Function Attrs: nofree norecurse nosync nounwind memory(read, argmem: readwrite, inaccessiblemem: none) uwtable
define void @dequantize_row_iq2_xxs(ptr noalias noundef readonly captures(none) %0, ptr noalias noundef writeonly captures(none) %1, i64 noundef %2) local_unnamed_addr #4 {
  %4 = alloca [2 x i32], align 8
  %5 = sdiv i64 %2, 256
  call void @llvm.lifetime.start.p0(i64 8, ptr nonnull %4) #23
  %6 = icmp sgt i64 %2, 255
  br i1 %6, label %.lr.ph, label %._crit_edge

._crit_edge:                                      ; preds = %13, %3
  call void @llvm.lifetime.end.p0(i64 8, ptr nonnull %4) #23
  ret void

.lr.ph:                                           ; preds = %3, %13
  %indvars.iv47 = phi i64 [ %indvars.iv.next48, %13 ], [ 0, %3 ]
  %.02637 = phi ptr [ %38, %13 ], [ %1, %3 ]
  %7 = getelementptr inbounds nuw %struct.block_iq2_xxs, ptr %0, i64 %indvars.iv47
  %8 = load i16, ptr %7, align 2, !tbaa !3
  %9 = zext i16 %8 to i64
  %10 = getelementptr inbounds nuw [65536 x float], ptr @ggml_table_f32_f16, i64 0, i64 %9
  %11 = load float, ptr %10, align 4, !tbaa !8
  %12 = getelementptr inbounds nuw i8, ptr %7, i64 2
  br label %14

13:                                               ; preds = %24
  %indvars.iv.next48 = add nuw nsw i64 %indvars.iv47, 1
  %exitcond50.not = icmp eq i64 %indvars.iv.next48, %5
  br i1 %exitcond50.not, label %._crit_edge, label %.lr.ph, !llvm.loop !627

14:                                               ; preds = %.lr.ph, %24
  %indvars.iv43 = phi i64 [ 0, %.lr.ph ], [ %indvars.iv.next44, %24 ]
  %.135 = phi ptr [ %.02637, %.lr.ph ], [ %38, %24 ]
  %.idx = shl nuw nsw i64 %indvars.iv43, 3
  %15 = getelementptr inbounds nuw i8, ptr %12, i64 %.idx
  %16 = load i64, ptr %15, align 2
  store i64 %16, ptr %4, align 8
  %17 = lshr i64 %16, 32
  %18 = trunc nuw i64 %17 to i32
  %19 = lshr i32 %18, 28
  %20 = uitofp nneg i32 %19 to float
  %21 = fadd float %20, 5.000000e-01
  %22 = fmul float %11, %21
  %23 = fmul float %22, 2.500000e-01
  br label %25

24:                                               ; preds = %37
  %indvars.iv.next44 = add nuw nsw i64 %indvars.iv43, 1
  %exitcond46.not = icmp eq i64 %indvars.iv.next44, 8
  br i1 %exitcond46.not, label %13, label %14, !llvm.loop !628

25:                                               ; preds = %14, %37
  %indvars.iv39 = phi i64 [ 0, %14 ], [ %indvars.iv.next40, %37 ]
  %.233 = phi ptr [ %.135, %14 ], [ %38, %37 ]
  %26 = getelementptr inbounds nuw i8, ptr %4, i64 %indvars.iv39
  %27 = load i8, ptr %26, align 1, !tbaa !13
  %28 = zext i8 %27 to i64
  %29 = getelementptr inbounds nuw i64, ptr @iq2xxs_grid, i64 %28
  %30 = trunc i64 %indvars.iv39 to i32
  %31 = mul i32 %30, 7
  %32 = lshr i32 %18, %31
  %33 = and i32 %32, 127
  %34 = zext nneg i32 %33 to i64
  %35 = getelementptr inbounds nuw [128 x i8], ptr @ksigns_iq2xs, i64 0, i64 %34
  %36 = load i8, ptr %35, align 1, !tbaa !13
  br label %39

37:                                               ; preds = %39
  %38 = getelementptr inbounds nuw i8, ptr %.233, i64 32
  %indvars.iv.next40 = add nuw nsw i64 %indvars.iv39, 1
  %exitcond42.not = icmp eq i64 %indvars.iv.next40, 4
  br i1 %exitcond42.not, label %24, label %25, !llvm.loop !629

39:                                               ; preds = %25, %39
  %indvars.iv = phi i64 [ 0, %25 ], [ %indvars.iv.next, %39 ]
  %40 = getelementptr inbounds nuw i8, ptr %29, i64 %indvars.iv
  %41 = load i8, ptr %40, align 1, !tbaa !13
  %42 = uitofp i8 %41 to float
  %43 = fmul float %23, %42
  %44 = getelementptr inbounds nuw [8 x i8], ptr @kmask_iq2xs, i64 0, i64 %indvars.iv
  %45 = load i8, ptr %44, align 1, !tbaa !13
  %46 = and i8 %45, %36
  %.not = icmp eq i8 %46, 0
  %47 = fneg float %43
  %48 = select i1 %.not, float %43, float %47
  %49 = getelementptr inbounds nuw float, ptr %.233, i64 %indvars.iv
  store float %48, ptr %49, align 4, !tbaa !8
  %indvars.iv.next = add nuw nsw i64 %indvars.iv, 1
  %exitcond.not = icmp eq i64 %indvars.iv.next, 8
  br i1 %exitcond.not, label %37, label %39, !llvm.loop !630
}